target datalayout = "e-m:e-p270:32:32-p271:32:32-p272:64:64-i64:64-i128:128-f80:128-n8:16:32:64-S128"
target triple = "x86_64-unknown-linux-gnu"

%"class.pugi::xml_node" = type { ptr }
%"class.pugi::xml_node_iterator" = type { %"class.pugi::xml_node", %"class.pugi::xml_node" }
%"struct.pugi::xml_node_struct" = type { i64, ptr, ptr, ptr, ptr, ptr, ptr, ptr }

@_ZN4pugi8xml_nodeC1Ev = unnamed_addr alias void (ptr), ptr @_ZN4pugi8xml_nodeC2Ev
@_ZN4pugi8xml_nodeC1EPNS_15xml_node_structE = unnamed_addr alias void (ptr, ptr), ptr @_ZN4pugi8xml_nodeC2EPNS_15xml_node_structE

; Function Attrs: mustprogress uwtable
define ptr @_ZNK4pugi8xml_node10last_childEv(ptr noundef nonnull align 8 dereferenceable(8) %this) #2 align 2 {
entry:
  %retval = alloca %"class.pugi::xml_node", align 8
  %this.addr = alloca ptr, align 8
  %first = alloca ptr, align 8
  store ptr %this, ptr %this.addr, align 8
  %this1 = load ptr, ptr %this.addr, align 8
  %_root = getelementptr inbounds %"class.pugi::xml_node", ptr %this1, i32 0, i32 0
  %0 = load ptr, ptr %_root, align 8
  %tobool = icmp ne ptr %0, null
  br i1 %tobool, label %if.end, label %if.then

if.then:                                          ; preds = %entry
  call void @_ZN4pugi8xml_nodeC1Ev(ptr noundef nonnull align 8 dereferenceable(8) %retval)
  br label %return

if.end:                                           ; preds = %entry
  %_root2 = getelementptr inbounds %"class.pugi::xml_node", ptr %this1, i32 0, i32 0
  %1 = load ptr, ptr %_root2, align 8
  %first_child = getelementptr inbounds %"struct.pugi::xml_node_struct", ptr %1, i32 0, i32 4
  %2 = load ptr, ptr %first_child, align 8
  store ptr %2, ptr %first, align 8
  %3 = load ptr, ptr %first, align 8
  %tobool3 = icmp ne ptr %3, null
  br i1 %tobool3, label %cond.true, label %cond.false

cond.true:                                        ; preds = %if.end
  %4 = load ptr, ptr %first, align 8
  %prev_sibling_c = getelementptr inbounds %"struct.pugi::xml_node_struct", ptr %4, i32 0, i32 5
  %5 = load ptr, ptr %prev_sibling_c, align 8
  call void @_ZN4pugi8xml_nodeC1EPNS_15xml_node_structE(ptr noundef nonnull align 8 dereferenceable(8) %retval, ptr noundef %5)
  br label %cond.end

cond.false:                                       ; preds = %if.end
  call void @_ZN4pugi8xml_nodeC1Ev(ptr noundef nonnull align 8 dereferenceable(8) %retval)
  br label %cond.end

cond.end:                                         ; preds = %cond.false, %cond.true
  br label %return

return:                                           ; preds = %cond.end, %if.then
  %coerce.dive = getelementptr inbounds %"class.pugi::xml_node", ptr %retval, i32 0, i32 0
  %6 = load ptr, ptr %coerce.dive, align 8
  ret ptr %6
}

; Function Attrs: mustprogress uwtable
define ptr @_ZNK4pugi8xml_node16previous_siblingEv(ptr noundef nonnull align 8 dereferenceable(8) %this) #2 align 2 {
entry:
  %retval = alloca %"class.pugi::xml_node", align 8
  %this.addr = alloca ptr, align 8
  %prev = alloca ptr, align 8
  store ptr %this, ptr %this.addr, align 8
  %this1 = load ptr, ptr %this.addr, align 8
  %_root = getelementptr inbounds %"class.pugi::xml_node", ptr %this1, i32 0, i32 0
  %0 = load ptr, ptr %_root, align 8
  %tobool = icmp ne ptr %0, null
  br i1 %tobool, label %if.end, label %if.then

if.then:                                          ; preds = %entry
  call void @_ZN4pugi8xml_nodeC1Ev(ptr noundef nonnull align 8 dereferenceable(8) %retval)
  br label %return

if.end:                                           ; preds = %entry
  %_root2 = getelementptr inbounds %"class.pugi::xml_node", ptr %this1, i32 0, i32 0
  %1 = load ptr, ptr %_root2, align 8
  %prev_sibling_c = getelementptr inbounds %"struct.pugi::xml_node_struct", ptr %1, i32 0, i32 5
  %2 = load ptr, ptr %prev_sibling_c, align 8
  store ptr %2, ptr %prev, align 8
  %3 = load ptr, ptr %prev, align 8
  %next_sibling = getelementptr inbounds %"struct.pugi::xml_node_struct", ptr %3, i32 0, i32 6
  %4 = load ptr, ptr %next_sibling, align 8
  %tobool3 = icmp ne ptr %4, null
  br i1 %tobool3, label %cond.true, label %cond.false

cond.true:                                        ; preds = %if.end
  %5 = load ptr, ptr %prev, align 8
  call void @_ZN4pugi8xml_nodeC1EPNS_15xml_node_structE(ptr noundef nonnull align 8 dereferenceable(8) %retval, ptr noundef %5)
  br label %cond.end

cond.false:                                       ; preds = %if.end
  call void @_ZN4pugi8xml_nodeC1Ev(ptr noundef nonnull align 8 dereferenceable(8) %retval)
  br label %cond.end

cond.end:                                         ; preds = %cond.false, %cond.true
  br label %return

return:                                           ; preds = %cond.end, %if.then
  %coerce.dive = getelementptr inbounds %"class.pugi::xml_node", ptr %retval, i32 0, i32 0
  %6 = load ptr, ptr %coerce.dive, align 8
  ret ptr %6
}

; Function Attrs: mustprogress uwtable
define noundef nonnull align 8 dereferenceable(16) ptr @_ZN4pugi17xml_node_iteratormmEv(ptr noundef nonnull align 8 dereferenceable(16) %this) #2 align 2 {
entry:
  %this.addr = alloca ptr, align 8
  %ref.tmp = alloca %"class.pugi::xml_node", align 8
  store ptr %this, ptr %this.addr, align 8
  %this1 = load ptr, ptr %this.addr, align 8
  %_wrap = getelementptr inbounds %"class.pugi::xml_node_iterator", ptr %this1, i32 0, i32 0
  %_root = getelementptr inbounds %"class.pugi::xml_node", ptr %_wrap, i32 0, i32 0
  %0 = load ptr, ptr %_root, align 8
  %tobool = icmp ne ptr %0, null
  br i1 %tobool, label %cond.true, label %cond.false

cond.true:                                        ; preds = %entry
  %_wrap2 = getelementptr inbounds %"class.pugi::xml_node_iterator", ptr %this1, i32 0, i32 0
  %call = call ptr @_ZNK4pugi8xml_node16previous_siblingEv(ptr noundef nonnull align 8 dereferenceable(8) %_wrap2)
  %coerce.dive = getelementptr inbounds %"class.pugi::xml_node", ptr %ref.tmp, i32 0, i32 0
  store ptr %call, ptr %coerce.dive, align 8
  br label %cond.end

cond.false:                                       ; preds = %entry
  %_parent = getelementptr inbounds %"class.pugi::xml_node_iterator", ptr %this1, i32 0, i32 1
  %call3 = call ptr @_ZNK4pugi8xml_node10last_childEv(ptr noundef nonnull align 8 dereferenceable(8) %_parent)
  %coerce.dive4 = getelementptr inbounds %"class.pugi::xml_node", ptr %ref.tmp, i32 0, i32 0
  store ptr %call3, ptr %coerce.dive4, align 8
  br label %cond.end

cond.end:                                         ; preds = %cond.false, %cond.true
  %_wrap5 = getelementptr inbounds %"class.pugi::xml_node_iterator", ptr %this1, i32 0, i32 0
  call void @llvm.memcpy.p0.p0.i64(ptr align 8 %_wrap5, ptr align 8 %ref.tmp, i64 8, i1 false)
  ret ptr %this1
}

; Function Attrs: mustprogress uwtable
define { ptr, ptr } @_ZN4pugi17xml_node_iteratormmEi(ptr noundef nonnull align 8 dereferenceable(16) %this, i32 noundef %0) #2 align 2 {
entry:
  %retval = alloca %"class.pugi::xml_node_iterator", align 8
  %this.addr = alloca ptr, align 8
  %.addr = alloca i32, align 4
  store ptr %this, ptr %this.addr, align 8
  store i32 %0, ptr %.addr, align 4
  %this1 = load ptr, ptr %this.addr, align 8
  call void @llvm.memcpy.p0.p0.i64(ptr align 8 %retval, ptr align 8 %this1, i64 16, i1 false)
  %call = call noundef nonnull align 8 dereferenceable(16) ptr @_ZN4pugi17xml_node_iteratormmEv(ptr noundef nonnull align 8 dereferenceable(16) %this1)
  %1 = load { ptr, ptr }, ptr %retval, align 8
  ret { ptr, ptr } %1
}