; Function Attrs: mustprogress uwtable
define { ptr, ptr } @_ZN4pugi17xml_node_iteratormmEi(ptr nocapture noundef nonnull align 8 dereferenceable(16) %this, i32 noundef %0) local_unnamed_addr #6 align 2 {
entry:
  %retval.i1.i = alloca %"class.pugi::xml_node", align 8
  %retval.i.i = alloca %"class.pugi::xml_node", align 8
  %retval.sroa.0.0.copyload = load ptr, ptr %this, align 8
  %retval.sroa.2.0.this.addr.0.this1.sroa_idx = getelementptr inbounds i8, ptr %this, i64 8
  %retval.sroa.2.0.copyload = load ptr, ptr %retval.sroa.2.0.this.addr.0.this1.sroa_idx, align 8
  %tobool.not.i = icmp eq ptr %retval.sroa.0.0.copyload, null
  br i1 %tobool.not.i, label %cond.false.i, label %if.end.i.i

if.end.i.i:                                       ; preds = %entry
  call void @llvm.lifetime.start.p0(i64 8, ptr nonnull %retval.i.i)
  %prev_sibling_c.i.i = getelementptr inbounds i8, ptr %retval.sroa.0.0.copyload, i64 40
  %1 = load ptr, ptr %prev_sibling_c.i.i, align 8
  %next_sibling.i.i = getelementptr inbounds i8, ptr %1, i64 48
  %2 = load ptr, ptr %next_sibling.i.i, align 8
  %tobool3.not.i.i = icmp eq ptr %2, null
  br i1 %tobool3.not.i.i, label %cond.false.i.i, label %cond.true.i.i

cond.true.i.i:                                    ; preds = %if.end.i.i
  call void @_ZN4pugi8xml_nodeC1EPNS_15xml_node_structE(ptr noundef nonnull align 8 dereferenceable(8) %retval.i.i, ptr noundef nonnull %1)
  br label %_ZNK4pugi8xml_node16previous_siblingEv.exit.i

cond.false.i.i:                                   ; preds = %if.end.i.i
  call void @_ZN4pugi8xml_nodeC1Ev(ptr noundef nonnull align 8 dereferenceable(8) %retval.i.i)
  br label %_ZNK4pugi8xml_node16previous_siblingEv.exit.i

_ZNK4pugi8xml_node16previous_siblingEv.exit.i:    ; preds = %cond.false.i.i, %cond.true.i.i
  %3 = load ptr, ptr %retval.i.i, align 8
  call void @llvm.lifetime.end.p0(i64 8, ptr nonnull %retval.i.i)
  br label %_ZN4pugi17xml_node_iteratormmEv.exit

cond.false.i:                                     ; preds = %entry
  call void @llvm.lifetime.start.p0(i64 8, ptr nonnull %retval.i1.i)
  %tobool.not.i2.i = icmp eq ptr %retval.sroa.2.0.copyload, null
  br i1 %tobool.not.i2.i, label %if.then.i8.i, label %if.end.i3.i

if.then.i8.i:                                     ; preds = %cond.false.i
  call void @_ZN4pugi8xml_nodeC1Ev(ptr noundef nonnull align 8 dereferenceable(8) %retval.i1.i)
  br label %_ZNK4pugi8xml_node10last_childEv.exit.i

if.end.i3.i:                                      ; preds = %cond.false.i
  %first_child.i.i = getelementptr inbounds i8, ptr %retval.sroa.2.0.copyload, i64 32
  %4 = load ptr, ptr %first_child.i.i, align 8
  %tobool3.not.i4.i = icmp eq ptr %4, null
  br i1 %tobool3.not.i4.i, label %cond.false.i7.i, label %cond.true.i5.i

cond.true.i5.i:                                   ; preds = %if.end.i3.i
  %prev_sibling_c.i6.i = getelementptr inbounds i8, ptr %4, i64 40
  %5 = load ptr, ptr %prev_sibling_c.i6.i, align 8
  call void @_ZN4pugi8xml_nodeC1EPNS_15xml_node_structE(ptr noundef nonnull align 8 dereferenceable(8) %retval.i1.i, ptr noundef %5)
  br label %_ZNK4pugi8xml_node10last_childEv.exit.i

cond.false.i7.i:                                  ; preds = %if.end.i3.i
  call void @_ZN4pugi8xml_nodeC1Ev(ptr noundef nonnull align 8 dereferenceable(8) %retval.i1.i)
  br label %_ZNK4pugi8xml_node10last_childEv.exit.i

_ZNK4pugi8xml_node10last_childEv.exit.i:          ; preds = %cond.false.i7.i, %cond.true.i5.i, %if.then.i8.i
  %6 = load ptr, ptr %retval.i1.i, align 8
  call void @llvm.lifetime.end.p0(i64 8, ptr nonnull %retval.i1.i)
  br label %_ZN4pugi17xml_node_iteratormmEv.exit

_ZN4pugi17xml_node_iteratormmEv.exit:             ; preds = %_ZNK4pugi8xml_node16previous_siblingEv.exit.i, %_ZNK4pugi8xml_node10last_childEv.exit.i
  %ref.tmp.sroa.0.0.i = phi ptr [ %3, %_ZNK4pugi8xml_node16previous_siblingEv.exit.i ], [ %6, %_ZNK4pugi8xml_node10last_childEv.exit.i ]
  store ptr %ref.tmp.sroa.0.0.i, ptr %this, align 8
  %.fca.0.insert = insertvalue { ptr, ptr } poison, ptr %retval.sroa.0.0.copyload, 0
  %.fca.1.insert = insertvalue { ptr, ptr } %.fca.0.insert, ptr %retval.sroa.2.0.copyload, 1
  ret { ptr, ptr } %.fca.1.insert
}